; ModuleID = '33/1760.c'
source_filename = "33/1760.c"
target datalayout = "e-m:e-p270:32:32-p271:32:32-p272:64:64-i64:64-f80:128-n8:16:32:64-S128"
target triple = "x86_64-pc-linux-gnu"

%struct.point = type { [256 x i8], [256 x i8] }

@.str = private unnamed_addr constant [3 x i8] c"%d\00", align 1
@.str.1 = private unnamed_addr constant [3 x i8] c"%s\00", align 1
@.str.2 = private unnamed_addr constant [4 x i8] c"%s\0A\00", align 1

; Function Attrs: noinline nounwind uwtable
define dso_local i32 @main() #0 {
  %1 = alloca i32, align 4
  %2 = alloca i32, align 4
  %3 = alloca i32, align 4
  %4 = alloca i32, align 4
  %5 = alloca i8*, align 8
  %6 = alloca i64, align 8
  store i32 0, i32* %1, align 4
  %7 = call i32 (i8*, ...) @__isoc99_scanf(i8* getelementptr inbounds ([3 x i8], [3 x i8]* @.str, i64 0, i64 0), i32* %2)
  %8 = load i32, i32* %2, align 4
  %9 = zext i32 %8 to i64
  %10 = call i8* @llvm.stacksave()
  store i8* %10, i8** %5, align 8
  %11 = alloca %struct.point, i64 %9, align 16
  store i64 %9, i64* %6, align 8
  store i32 0, i32* %3, align 4
  br label %12

12:                                               ; preds = %22, %0
  %13 = load i32, i32* %3, align 4
  %14 = load i32, i32* %2, align 4
  %15 = icmp slt i32 %13, %14
  br i1 %15, label %16, label %25

16:                                               ; preds = %12
  %17 = load i32, i32* %3, align 4
  %18 = sext i32 %17 to i64
  %19 = getelementptr inbounds %struct.point, %struct.point* %11, i64 %18
  %20 = getelementptr inbounds %struct.point, %struct.point* %19, i32 0, i32 0
  %21 = call i32 (i8*, ...) @__isoc99_scanf(i8* getelementptr inbounds ([3 x i8], [3 x i8]* @.str.1, i64 0, i64 0), [256 x i8]* %20)
  br label %22

22:                                               ; preds = %16
  %23 = load i32, i32* %3, align 4
  %24 = add nsw i32 %23, 1
  store i32 %24, i32* %3, align 4
  br label %12

25:                                               ; preds = %12
  store i32 0, i32* %3, align 4
  br label %26

26:                                               ; preds = %129, %25
  %27 = load i32, i32* %3, align 4
  %28 = load i32, i32* %2, align 4
  %29 = icmp slt i32 %27, %28
  br i1 %29, label %30, label %132

30:                                               ; preds = %26
  store i32 0, i32* %4, align 4
  br label %31

31:                                               ; preds = %118, %30
  %32 = load i32, i32* %3, align 4
  %33 = sext i32 %32 to i64
  %34 = getelementptr inbounds %struct.point, %struct.point* %11, i64 %33
  %35 = getelementptr inbounds %struct.point, %struct.point* %34, i32 0, i32 0
  %36 = load i32, i32* %4, align 4
  %37 = sext i32 %36 to i64
  %38 = getelementptr inbounds [256 x i8], [256 x i8]* %35, i64 0, i64 %37
  %39 = load i8, i8* %38, align 1
  %40 = icmp ne i8 %39, 0
  br i1 %40, label %41, label %121

41:                                               ; preds = %31
  %42 = load i32, i32* %3, align 4
  %43 = sext i32 %42 to i64
  %44 = getelementptr inbounds %struct.point, %struct.point* %11, i64 %43
  %45 = getelementptr inbounds %struct.point, %struct.point* %44, i32 0, i32 0
  %46 = load i32, i32* %4, align 4
  %47 = sext i32 %46 to i64
  %48 = getelementptr inbounds [256 x i8], [256 x i8]* %45, i64 0, i64 %47
  %49 = load i8, i8* %48, align 1
  %50 = sext i8 %49 to i32
  %51 = icmp eq i32 %50, 65
  br i1 %51, label %52, label %60

52:                                               ; preds = %41
  %53 = load i32, i32* %3, align 4
  %54 = sext i32 %53 to i64
  %55 = getelementptr inbounds %struct.point, %struct.point* %11, i64 %54
  %56 = getelementptr inbounds %struct.point, %struct.point* %55, i32 0, i32 1
  %57 = load i32, i32* %4, align 4
  %58 = sext i32 %57 to i64
  %59 = getelementptr inbounds [256 x i8], [256 x i8]* %56, i64 0, i64 %58
  store i8 84, i8* %59, align 1
  br label %60

60:                                               ; preds = %52, %41
  %61 = load i32, i32* %3, align 4
  %62 = sext i32 %61 to i64
  %63 = getelementptr inbounds %struct.point, %struct.point* %11, i64 %62
  %64 = getelementptr inbounds %struct.point, %struct.point* %63, i32 0, i32 0
  %65 = load i32, i32* %4, align 4
  %66 = sext i32 %65 to i64
  %67 = getelementptr inbounds [256 x i8], [256 x i8]* %64, i64 0, i64 %66
  %68 = load i8, i8* %67, align 1
  %69 = sext i8 %68 to i32
  %70 = icmp eq i32 %69, 84
  br i1 %70, label %71, label %79

71:                                               ; preds = %60
  %72 = load i32, i32* %3, align 4
  %73 = sext i32 %72 to i64
  %74 = getelementptr inbounds %struct.point, %struct.point* %11, i64 %73
  %75 = getelementptr inbounds %struct.point, %struct.point* %74, i32 0, i32 1
  %76 = load i32, i32* %4, align 4
  %77 = sext i32 %76 to i64
  %78 = getelementptr inbounds [256 x i8], [256 x i8]* %75, i64 0, i64 %77
  store i8 65, i8* %78, align 1
  br label %79

79:                                               ; preds = %71, %60
  %80 = load i32, i32* %3, align 4
  %81 = sext i32 %80 to i64
  %82 = getelementptr inbounds %struct.point, %struct.point* %11, i64 %81
  %83 = getelementptr inbounds %struct.point, %struct.point* %82, i32 0, i32 0
  %84 = load i32, i32* %4, align 4
  %85 = sext i32 %84 to i64
  %86 = getelementptr inbounds [256 x i8], [256 x i8]* %83, i64 0, i64 %85
  %87 = load i8, i8* %86, align 1
  %88 = sext i8 %87 to i32
  %89 = icmp eq i32 %88, 67
  br i1 %89, label %90, label %98

90:                                               ; preds = %79
  %91 = load i32, i32* %3, align 4
  %92 = sext i32 %91 to i64
  %93 = getelementptr inbounds %struct.point, %struct.point* %11, i64 %92
  %94 = getelementptr inbounds %struct.point, %struct.point* %93, i32 0, i32 1
  %95 = load i32, i32* %4, align 4
  %96 = sext i32 %95 to i64
  %97 = getelementptr inbounds [256 x i8], [256 x i8]* %94, i64 0, i64 %96
  store i8 71, i8* %97, align 1
  br label %98

98:                                               ; preds = %90, %79
  %99 = load i32, i32* %3, align 4
  %100 = sext i32 %99 to i64
  %101 = getelementptr inbounds %struct.point, %struct.point* %11, i64 %100
  %102 = getelementptr inbounds %struct.point, %struct.point* %101, i32 0, i32 0
  %103 = load i32, i32* %4, align 4
  %104 = sext i32 %103 to i64
  %105 = getelementptr inbounds [256 x i8], [256 x i8]* %102, i64 0, i64 %104
  %106 = load i8, i8* %105, align 1
  %107 = sext i8 %106 to i32
  %108 = icmp eq i32 %107, 71
  br i1 %108, label %109, label %117

109:                                              ; preds = %98
  %110 = load i32, i32* %3, align 4
  %111 = sext i32 %110 to i64
  %112 = getelementptr inbounds %struct.point, %struct.point* %11, i64 %111
  %113 = getelementptr inbounds %struct.point, %struct.point* %112, i32 0, i32 1
  %114 = load i32, i32* %4, align 4
  %115 = sext i32 %114 to i64
  %116 = getelementptr inbounds [256 x i8], [256 x i8]* %113, i64 0, i64 %115
  store i8 67, i8* %116, align 1
  br label %117

117:                                              ; preds = %109, %98
  br label %118

118:                                              ; preds = %117
  %119 = load i32, i32* %4, align 4
  %120 = add nsw i32 %119, 1
  store i32 %120, i32* %4, align 4
  br label %31

121:                                              ; preds = %31
  %122 = load i32, i32* %3, align 4
  %123 = sext i32 %122 to i64
  %124 = getelementptr inbounds %struct.point, %struct.point* %11, i64 %123
  %125 = getelementptr inbounds %struct.point, %struct.point* %124, i32 0, i32 1
  %126 = load i32, i32* %4, align 4
  %127 = sext i32 %126 to i64
  %128 = getelementptr inbounds [256 x i8], [256 x i8]* %125, i64 0, i64 %127
  store i8 0, i8* %128, align 1
  br label %129

129:                                              ; preds = %121
  %130 = load i32, i32* %3, align 4
  %131 = add nsw i32 %130, 1
  store i32 %131, i32* %3, align 4
  br label %26

132:                                              ; preds = %26
  store i32 0, i32* %3, align 4
  br label %133

133:                                              ; preds = %144, %132
  %134 = load i32, i32* %3, align 4
  %135 = load i32, i32* %2, align 4
  %136 = icmp slt i32 %134, %135
  br i1 %136, label %137, label %147

137:                                              ; preds = %133
  %138 = load i32, i32* %3, align 4
  %139 = sext i32 %138 to i64
  %140 = getelementptr inbounds %struct.point, %struct.point* %11, i64 %139
  %141 = getelementptr inbounds %struct.point, %struct.point* %140, i32 0, i32 1
  %142 = getelementptr inbounds [256 x i8], [256 x i8]* %141, i64 0, i64 0
  %143 = call i32 (i8*, ...) @printf(i8* getelementptr inbounds ([4 x i8], [4 x i8]* @.str.2, i64 0, i64 0), i8* %142)
  br label %144

144:                                              ; preds = %137
  %145 = load i32, i32* %3, align 4
  %146 = add nsw i32 %145, 1
  store i32 %146, i32* %3, align 4
  br label %133

147:                                              ; preds = %133
  store i32 0, i32* %1, align 4
  %148 = load i8*, i8** %5, align 8
  call void @llvm.stackrestore(i8* %148)
  %149 = load i32, i32* %1, align 4
  ret i32 %149
}

declare dso_local i32 @__isoc99_scanf(i8*, ...) #1

; Function Attrs: nounwind
declare i8* @llvm.stacksave() #2

declare dso_local i32 @printf(i8*, ...) #1

; Function Attrs: nounwind
declare void @llvm.stackrestore(i8*) #2


!llvm.module.flags = !{!0}
!llvm.ident = !{!1}

!0 = !{i32 1, !"wchar_size", i32 4}
!1 = !{!"clang version 10.0.0-4ubuntu1 "}
